target datalayout = "e-m:e-p270:32:32-p271:32:32-p272:64:64-i64:64-i128:128-f80:128-n8:16:32:64-S128"
target triple = "x86_64-pc-linux-gnu"

@max_alloc_size = internal global i64 2147483647, align 8

; Function Attrs: nounwind uwtable
define void @av_free(ptr noundef %0) #0 {
  %2 = alloca ptr, align 8
  store ptr %0, ptr %2, align 8, !tbaa !8
  %3 = load ptr, ptr %2, align 8, !tbaa !8
  call void @free(ptr noundef %3) #11
  ret void
}

; Function Attrs: nounwind uwtable
define void @av_freep(ptr noundef %0) #0 {
  %2 = alloca ptr, align 8
  %3 = alloca ptr, align 8
  %4 = alloca ptr, align 8
  store ptr %0, ptr %2, align 8, !tbaa !8
  call void @llvm.lifetime.start.p0(i64 8, ptr %3) #11
  %5 = load ptr, ptr %2, align 8, !tbaa !8
  call void @llvm.memcpy.p0.p0.i64(ptr align 8 %3, ptr align 1 %5, i64 8, i1 false)
  %6 = load ptr, ptr %2, align 8, !tbaa !8
  store ptr null, ptr %4, align 8, !tbaa !8
  call void @llvm.memcpy.p0.p0.i64(ptr align 1 %6, ptr align 8 %4, i64 8, i1 false)
  %7 = load ptr, ptr %3, align 8, !tbaa !8
  call void @av_free(ptr noundef %7)
  call void @llvm.lifetime.end.p0(i64 8, ptr %3) #11
  ret void
}

; Function Attrs: nounwind uwtable
define ptr @av_realloc(ptr noundef %0, i64 noundef %1) #0 {
  %3 = alloca ptr, align 8
  %4 = alloca ptr, align 8
  %5 = alloca i64, align 8
  %6 = alloca ptr, align 8
  %7 = alloca i64, align 8
  %8 = alloca i32, align 4
  store ptr %0, ptr %4, align 8, !tbaa !8
  store i64 %1, ptr %5, align 8, !tbaa !4
  call void @llvm.lifetime.start.p0(i64 8, ptr %6) #11
  %9 = load i64, ptr %5, align 8, !tbaa !4
  %10 = load atomic i64, ptr @max_alloc_size monotonic, align 8
  store i64 %10, ptr %7, align 8
  %11 = load i64, ptr %7, align 8, !tbaa !4
  %12 = icmp ugt i64 %9, %11
  br i1 %12, label %13, label %14

13:                                               ; preds = %2
  store ptr null, ptr %3, align 8
  store i32 1, ptr %8, align 4
  br label %25

14:                                               ; preds = %2
  %15 = load ptr, ptr %4, align 8, !tbaa !8
  %16 = load i64, ptr %5, align 8, !tbaa !4
  %17 = load i64, ptr %5, align 8, !tbaa !4
  %18 = icmp ne i64 %17, 0
  %19 = xor i1 %18, true
  %20 = zext i1 %19 to i32
  %21 = sext i32 %20 to i64
  %22 = add i64 %16, %21
  %23 = call ptr @realloc(ptr noundef %15, i64 noundef %22) #12
  store ptr %23, ptr %6, align 8, !tbaa !8
  %24 = load ptr, ptr %6, align 8, !tbaa !8
  store ptr %24, ptr %3, align 8
  store i32 1, ptr %8, align 4
  br label %25

25:                                               ; preds = %14, %13
  call void @llvm.lifetime.end.p0(i64 8, ptr %6) #11
  %26 = load ptr, ptr %3, align 8
  ret ptr %26
}

; Function Attrs: nounwind uwtable
define void @av_dynarray_add(ptr noundef %0, ptr noundef %1, ptr noundef %2) #0 {
  %4 = alloca ptr, align 8
  %5 = alloca ptr, align 8
  %6 = alloca ptr, align 8
  %7 = alloca ptr, align 8
  %8 = alloca i64, align 8
  %9 = alloca ptr, align 8
  store ptr %0, ptr %4, align 8, !tbaa !8
  store ptr %1, ptr %5, align 8, !tbaa !15
  store ptr %2, ptr %6, align 8, !tbaa !8
  call void @llvm.lifetime.start.p0(i64 8, ptr %7) #11
  %10 = load ptr, ptr %4, align 8, !tbaa !8
  call void @llvm.memcpy.p0.p0.i64(ptr align 8 %7, ptr align 1 %10, i64 8, i1 false)
  br label %11

11:                                               ; preds = %3
  call void @llvm.lifetime.start.p0(i64 8, ptr %8) #11
  %12 = load ptr, ptr %5, align 8, !tbaa !15
  %13 = load i32, ptr %12, align 4, !tbaa !17
  %14 = sext i32 %13 to i64
  store i64 %14, ptr %8, align 8, !tbaa !4
  %15 = load ptr, ptr %5, align 8, !tbaa !15
  %16 = load i32, ptr %15, align 4, !tbaa !17
  %17 = load ptr, ptr %5, align 8, !tbaa !15
  %18 = load i32, ptr %17, align 4, !tbaa !17
  %19 = sub nsw i32 %18, 1
  %20 = and i32 %16, %19
  %21 = icmp ne i32 %20, 0
  br i1 %21, label %49, label %22

22:                                               ; preds = %11
  %23 = load ptr, ptr %5, align 8, !tbaa !15
  %24 = load i32, ptr %23, align 4, !tbaa !17
  %25 = icmp ne i32 %24, 0
  br i1 %25, label %26, label %30

26:                                               ; preds = %22
  %27 = load ptr, ptr %5, align 8, !tbaa !15
  %28 = load i32, ptr %27, align 4, !tbaa !17
  %29 = shl i32 %28, 1
  br label %31

30:                                               ; preds = %22
  br label %31

31:                                               ; preds = %30, %26
  %32 = phi i32 [ %29, %26 ], [ 1, %30 ]
  %33 = sext i32 %32 to i64
  store i64 %33, ptr %8, align 8, !tbaa !4
  %34 = load i64, ptr %8, align 8, !tbaa !4
  %35 = icmp ugt i64 %34, 268435455
  br i1 %35, label %36, label %37

36:                                               ; preds = %31
  store i64 0, ptr %8, align 8, !tbaa !4
  br label %48

37:                                               ; preds = %31
  call void @llvm.lifetime.start.p0(i64 8, ptr %9) #11
  %38 = load ptr, ptr %7, align 8, !tbaa !19
  %39 = load i64, ptr %8, align 8, !tbaa !4
  %40 = mul i64 %39, 8
  %41 = call ptr @av_realloc(ptr noundef %38, i64 noundef %40)
  store ptr %41, ptr %9, align 8, !tbaa !8
  %42 = load ptr, ptr %9, align 8, !tbaa !8
  %43 = icmp ne ptr %42, null
  br i1 %43, label %45, label %44

44:                                               ; preds = %37
  store i64 0, ptr %8, align 8, !tbaa !4
  br label %47

45:                                               ; preds = %37
  %46 = load ptr, ptr %9, align 8, !tbaa !8
  store ptr %46, ptr %7, align 8, !tbaa !19
  br label %47

47:                                               ; preds = %45, %44
  call void @llvm.lifetime.end.p0(i64 8, ptr %9) #11
  br label %48

48:                                               ; preds = %47, %36
  br label %49

49:                                               ; preds = %48, %11
  %50 = load i64, ptr %8, align 8, !tbaa !4
  %51 = icmp ne i64 %50, 0
  br i1 %51, label %52, label %63

52:                                               ; preds = %49
  %53 = load ptr, ptr %6, align 8, !tbaa !8
  %54 = load ptr, ptr %7, align 8, !tbaa !19
  %55 = load ptr, ptr %5, align 8, !tbaa !15
  %56 = load i32, ptr %55, align 4, !tbaa !17
  %57 = sext i32 %56 to i64
  %58 = getelementptr inbounds ptr, ptr %54, i64 %57
  store ptr %53, ptr %58, align 8, !tbaa !8
  %59 = load ptr, ptr %4, align 8, !tbaa !8
  call void @llvm.memcpy.p0.p0.i64(ptr align 1 %59, ptr align 8 %7, i64 8, i1 false)
  %60 = load ptr, ptr %5, align 8, !tbaa !15
  %61 = load i32, ptr %60, align 4, !tbaa !17
  %62 = add nsw i32 %61, 1
  store i32 %62, ptr %60, align 4, !tbaa !17
  br label %66

63:                                               ; preds = %49
  %64 = load ptr, ptr %5, align 8, !tbaa !15
  store i32 0, ptr %64, align 4, !tbaa !17
  %65 = load ptr, ptr %4, align 8, !tbaa !8
  call void @av_freep(ptr noundef %65)
  br label %66

66:                                               ; preds = %63, %52
  call void @llvm.lifetime.end.p0(i64 8, ptr %8) #11
  br label %67

67:                                               ; preds = %66
  br label %68

68:                                               ; preds = %67
  call void @llvm.lifetime.end.p0(i64 8, ptr %7) #11
  ret void
}